target datalayout = "e-m:e-p270:32:32-p271:32:32-p272:64:64-i64:64-i128:128-f80:128-n8:16:32:64-S128"
target triple = "x86_64-unknown-linux-gnu"

%"class.QuantLib::Date" = type { i64 }
%"class.QuantLib::Period" = type { i32, i32 }
%"struct.std::pair" = type { %"class.QuantLib::Date", %"class.QuantLib::Date" }

; Function Attrs: mustprogress nounwind uwtable
define linkonce_odr noundef i32 @_ZNK8QuantLib6Period5unitsEv(ptr noundef nonnull align 4 dereferenceable(8) %this) #4 comdat align 2 {
entry:
  %this.addr = alloca ptr, align 8
  store ptr %this, ptr %this.addr, align 8, !tbaa !3
  %this1 = load ptr, ptr %this.addr, align 8
  %units_ = getelementptr inbounds nuw %"class.QuantLib::Period", ptr %this1, i32 0, i32 1
  %0 = load i32, ptr %units_, align 4, !tbaa !44
  ret i32 %0
}

; Function Attrs: mustprogress nounwind uwtable
define linkonce_odr noundef i32 @_ZNK8QuantLib6Period6lengthEv(ptr noundef nonnull align 4 dereferenceable(8) %this) #4 comdat align 2 {
entry:
  %this.addr = alloca ptr, align 8
  store ptr %this, ptr %this.addr, align 8, !tbaa !3
  %this1 = load ptr, ptr %this.addr, align 8
  %length_ = getelementptr inbounds nuw %"class.QuantLib::Period", ptr %this1, i32 0, i32 0
  %0 = load i32, ptr %length_, align 4, !tbaa !43
  ret i32 %0
}

; Function Attrs: inlinehint mustprogress uwtable
define linkonce_odr i64 @_ZNK8QuantLib4DatemiERKNS_6PeriodE(ptr noundef nonnull align 8 dereferenceable(8) %this, ptr noundef nonnull align 4 dereferenceable(8) %p) #9 comdat align 2 {
entry:
  %retval = alloca %"class.QuantLib::Date", align 8
  %this.addr = alloca ptr, align 8
  %p.addr = alloca ptr, align 8
  store ptr %this, ptr %this.addr, align 8, !tbaa !3
  store ptr %p, ptr %p.addr, align 8, !tbaa !3
  %this1 = load ptr, ptr %this.addr, align 8
  %0 = load ptr, ptr %p.addr, align 8, !tbaa !3
  %call = call noundef i32 @_ZNK8QuantLib6Period6lengthEv(ptr noundef nonnull align 4 dereferenceable(8) %0)
  %sub = sub nsw i32 0, %call
  %1 = load ptr, ptr %p.addr, align 8, !tbaa !3
  %call2 = call noundef i32 @_ZNK8QuantLib6Period5unitsEv(ptr noundef nonnull align 4 dereferenceable(8) %1)
  %call3 = call i64 @_ZN8QuantLib4Date7advanceERKS0_iNS_8TimeUnitE(ptr noundef nonnull align 8 dereferenceable(8) %this1, i32 noundef %sub, i32 noundef %call2)
  %coerce.dive = getelementptr inbounds nuw %"class.QuantLib::Date", ptr %retval, i32 0, i32 0
  store i64 %call3, ptr %coerce.dive, align 8
  %coerce.dive4 = getelementptr inbounds nuw %"class.QuantLib::Date", ptr %retval, i32 0, i32 0
  %2 = load i64, ptr %coerce.dive4, align 8
  ret i64 %2
}

; Function Attrs: inlinehint mustprogress uwtable
define linkonce_odr noundef zeroext i1 @_ZN8QuantLibeqERKNS_6PeriodES2_(ptr noundef nonnull align 4 dereferenceable(8) %p1, ptr noundef nonnull align 4 dereferenceable(8) %p2) #9 comdat {
entry:
  %p1.addr = alloca ptr, align 8
  %p2.addr = alloca ptr, align 8
  store ptr %p1, ptr %p1.addr, align 8, !tbaa !3
  store ptr %p2, ptr %p2.addr, align 8, !tbaa !3
  %0 = load ptr, ptr %p1.addr, align 8, !tbaa !3
  %1 = load ptr, ptr %p2.addr, align 8, !tbaa !3
  %call = call noundef zeroext i1 @_ZN8QuantLibltERKNS_6PeriodES2_(ptr noundef nonnull align 4 dereferenceable(8) %0, ptr noundef nonnull align 4 dereferenceable(8) %1)
  br i1 %call, label %lor.end, label %lor.rhs

lor.rhs:                                          ; preds = %entry
  %2 = load ptr, ptr %p2.addr, align 8, !tbaa !3
  %3 = load ptr, ptr %p1.addr, align 8, !tbaa !3
  %call1 = call noundef zeroext i1 @_ZN8QuantLibltERKNS_6PeriodES2_(ptr noundef nonnull align 4 dereferenceable(8) %2, ptr noundef nonnull align 4 dereferenceable(8) %3)
  br label %lor.end

lor.end:                                          ; preds = %lor.rhs, %entry
  %4 = phi i1 [ true, %entry ], [ %call1, %lor.rhs ]
  %lnot = xor i1 %4, true
  ret i1 %lnot
}

; Function Attrs: mustprogress nounwind uwtable
define linkonce_odr void @_ZN8QuantLib6PeriodC2EiNS_8TimeUnitE(ptr noundef nonnull align 4 dereferenceable(8) %this, i32 noundef %n, i32 noundef %units) unnamed_addr #4 comdat align 2 {
entry:
  %this.addr = alloca ptr, align 8
  %n.addr = alloca i32, align 4
  %units.addr = alloca i32, align 4
  store ptr %this, ptr %this.addr, align 8, !tbaa !3
  store i32 %n, ptr %n.addr, align 4, !tbaa !21
  store i32 %units, ptr %units.addr, align 4, !tbaa !34
  %this1 = load ptr, ptr %this.addr, align 8
  %length_ = getelementptr inbounds nuw %"class.QuantLib::Period", ptr %this1, i32 0, i32 0
  %0 = load i32, ptr %n.addr, align 4, !tbaa !21
  store i32 %0, ptr %length_, align 4, !tbaa !43
  %units_ = getelementptr inbounds nuw %"class.QuantLib::Period", ptr %this1, i32 0, i32 1
  %1 = load i32, ptr %units.addr, align 4, !tbaa !34
  store i32 %1, ptr %units_, align 4, !tbaa !44
  ret void
}

; Function Attrs: mustprogress uwtable
define noundef double @_ZNK8QuantLib20CPIVolatilitySurface10volatilityERKNS_4DateEdRKNS_6PeriodEb(ptr noundef nonnull align 8 dereferenceable(93) %this, ptr noundef nonnull align 8 dereferenceable(8) %maturityDate, double noundef %strike, ptr noundef nonnull align 4 dereferenceable(8) %obsLag, i1 noundef zeroext %extrapolate) #7 align 2 {
entry:
  %retval = alloca double, align 8
  %this.addr = alloca ptr, align 8
  %maturityDate.addr = alloca ptr, align 8
  %strike.addr = alloca double, align 8
  %obsLag.addr = alloca ptr, align 8
  %extrapolate.addr = alloca i8, align 1
  %useLag = alloca %"class.QuantLib::Period", align 4
  %ref.tmp = alloca %"class.QuantLib::Period", align 4
  %ref.tmp2 = alloca %"class.QuantLib::Period", align 4
  %ref.tmp8 = alloca %"class.QuantLib::Date", align 8
  %t = alloca double, align 8
  %ref.tmp12 = alloca %"class.QuantLib::Date", align 8
  %cleanup.dest.slot = alloca i32, align 4
  %dd = alloca %"struct.std::pair", align 8
  %ref.tmp19 = alloca %"class.QuantLib::Date", align 8
  %t29 = alloca double, align 8
  store ptr %this, ptr %this.addr, align 8, !tbaa !3
  store ptr %maturityDate, ptr %maturityDate.addr, align 8, !tbaa !3
  store double %strike, ptr %strike.addr, align 8, !tbaa !41
  store ptr %obsLag, ptr %obsLag.addr, align 8, !tbaa !3
  %storedv = zext i1 %extrapolate to i8
  store i8 %storedv, ptr %extrapolate.addr, align 1, !tbaa !25
  %this1 = load ptr, ptr %this.addr, align 8
  call void @llvm.lifetime.start.p0(i64 8, ptr %useLag) #17
  %0 = load ptr, ptr %obsLag.addr, align 8, !tbaa !3
  call void @llvm.memcpy.p0.p0.i64(ptr align 4 %useLag, ptr align 4 %0, i64 8, i1 false), !tbaa.struct !33
  %1 = load ptr, ptr %obsLag.addr, align 8, !tbaa !3
  call void @llvm.lifetime.start.p0(i64 8, ptr %ref.tmp) #17
  call void @_ZN8QuantLib6PeriodC2EiNS_8TimeUnitE(ptr noundef nonnull align 4 dereferenceable(8) %ref.tmp, i32 noundef -1, i32 noundef 0)
  %call = call noundef zeroext i1 @_ZN8QuantLibeqERKNS_6PeriodES2_(ptr noundef nonnull align 4 dereferenceable(8) %1, ptr noundef nonnull align 4 dereferenceable(8) %ref.tmp)
  call void @llvm.lifetime.end.p0(i64 8, ptr %ref.tmp) #17
  br i1 %call, label %if.then, label %if.end

if.then:                                          ; preds = %entry
  call void @llvm.lifetime.start.p0(i64 8, ptr %ref.tmp2) #17
  %vtable = load ptr, ptr %this1, align 8, !tbaa !26
  %vfn = getelementptr inbounds ptr, ptr %vtable, i64 14
  %2 = load ptr, ptr %vfn, align 8
  %call3 = call i64 %2(ptr noundef nonnull align 8 dereferenceable(93) %this1)
  store i64 %call3, ptr %ref.tmp2, align 4
  call void @llvm.memcpy.p0.p0.i64(ptr align 4 %useLag, ptr align 4 %ref.tmp2, i64 8, i1 false), !tbaa.struct !33
  call void @llvm.lifetime.end.p0(i64 8, ptr %ref.tmp2) #17
  br label %if.end

if.end:                                           ; preds = %if.then, %entry
  %vtable4 = load ptr, ptr %this1, align 8, !tbaa !26
  %vfn5 = getelementptr inbounds ptr, ptr %vtable4, i64 16
  %3 = load ptr, ptr %vfn5, align 8
  %call6 = call noundef zeroext i1 %3(ptr noundef nonnull align 8 dereferenceable(93) %this1)
  br i1 %call6, label %if.then7, label %if.else

if.then7:                                         ; preds = %if.end
  call void @llvm.lifetime.start.p0(i64 8, ptr %ref.tmp8) #17
  %4 = load ptr, ptr %maturityDate.addr, align 8, !tbaa !3
  %call9 = call i64 @_ZNK8QuantLib4DatemiERKNS_6PeriodE(ptr noundef nonnull align 8 dereferenceable(8) %4, ptr noundef nonnull align 4 dereferenceable(8) %useLag)
  %coerce.dive = getelementptr inbounds nuw %"class.QuantLib::Date", ptr %ref.tmp8, i32 0, i32 0
  store i64 %call9, ptr %coerce.dive, align 8
  %5 = load double, ptr %strike.addr, align 8, !tbaa !41
  %6 = load i8, ptr %extrapolate.addr, align 1, !tbaa !25, !range !36, !noundef !37
  %loadedv = trunc i8 %6 to i1
  %vtable10 = load ptr, ptr %this1, align 8, !tbaa !26
  %vfn11 = getelementptr inbounds ptr, ptr %vtable10, i64 20
  %7 = load ptr, ptr %vfn11, align 8
  call void %7(ptr noundef nonnull align 8 dereferenceable(93) %this1, ptr noundef nonnull align 8 dereferenceable(8) %ref.tmp8, double noundef %5, i1 noundef zeroext %loadedv)
  call void @llvm.lifetime.end.p0(i64 8, ptr %ref.tmp8) #17
  call void @llvm.lifetime.start.p0(i64 8, ptr %t) #17
  call void @llvm.lifetime.start.p0(i64 8, ptr %ref.tmp12) #17
  %8 = load ptr, ptr %maturityDate.addr, align 8, !tbaa !3
  %call13 = call i64 @_ZNK8QuantLib4DatemiERKNS_6PeriodE(ptr noundef nonnull align 8 dereferenceable(8) %8, ptr noundef nonnull align 4 dereferenceable(8) %useLag)
  %coerce.dive14 = getelementptr inbounds nuw %"class.QuantLib::Date", ptr %ref.tmp12, i32 0, i32 0
  store i64 %call13, ptr %coerce.dive14, align 8
  %call15 = call noundef double @_ZNK8QuantLib13TermStructure17timeFromReferenceERKNS_4DateE(ptr noundef nonnull align 8 dereferenceable(64) %this1, ptr noundef nonnull align 8 dereferenceable(8) %ref.tmp12)
  call void @llvm.lifetime.end.p0(i64 8, ptr %ref.tmp12) #17
  store double %call15, ptr %t, align 8, !tbaa !41
  %9 = load double, ptr %t, align 8, !tbaa !41
  %10 = load double, ptr %strike.addr, align 8, !tbaa !41
  %vtable16 = load ptr, ptr %this1, align 8, !tbaa !26
  %vfn17 = getelementptr inbounds ptr, ptr %vtable16, i64 22
  %11 = load ptr, ptr %vfn17, align 8
  %call18 = call noundef double %11(ptr noundef nonnull align 8 dereferenceable(93) %this1, double noundef %9, double noundef %10)
  store double %call18, ptr %retval, align 8
  store i32 1, ptr %cleanup.dest.slot, align 4
  call void @llvm.lifetime.end.p0(i64 8, ptr %t) #17
  br label %cleanup

if.else:                                          ; preds = %if.end
  call void @llvm.lifetime.start.p0(i64 16, ptr %dd) #17
  call void @llvm.lifetime.start.p0(i64 8, ptr %ref.tmp19) #17
  %12 = load ptr, ptr %maturityDate.addr, align 8, !tbaa !3
  %call20 = call i64 @_ZNK8QuantLib4DatemiERKNS_6PeriodE(ptr noundef nonnull align 8 dereferenceable(8) %12, ptr noundef nonnull align 4 dereferenceable(8) %useLag)
  %coerce.dive21 = getelementptr inbounds nuw %"class.QuantLib::Date", ptr %ref.tmp19, i32 0, i32 0
  store i64 %call20, ptr %coerce.dive21, align 8
  %vtable22 = load ptr, ptr %this1, align 8, !tbaa !26
  %vfn23 = getelementptr inbounds ptr, ptr %vtable22, i64 15
  %13 = load ptr, ptr %vfn23, align 8
  %call24 = call noundef i32 %13(ptr noundef nonnull align 8 dereferenceable(93) %this1)
  %call25 = call { i64, i64 } @_ZN8QuantLib15inflationPeriodERKNS_4DateENS_9FrequencyE(ptr noundef nonnull align 8 dereferenceable(8) %ref.tmp19, i32 noundef %call24)
  %14 = getelementptr inbounds nuw { i64, i64 }, ptr %dd, i32 0, i32 0
  %15 = extractvalue { i64, i64 } %call25, 0
  store i64 %15, ptr %14, align 8
  %16 = getelementptr inbounds nuw { i64, i64 }, ptr %dd, i32 0, i32 1
  %17 = extractvalue { i64, i64 } %call25, 1
  store i64 %17, ptr %16, align 8
  call void @llvm.lifetime.end.p0(i64 8, ptr %ref.tmp19) #17
  %first = getelementptr inbounds nuw %"struct.std::pair", ptr %dd, i32 0, i32 0
  %18 = load double, ptr %strike.addr, align 8, !tbaa !41
  %19 = load i8, ptr %extrapolate.addr, align 1, !tbaa !25, !range !36, !noundef !37
  %loadedv26 = trunc i8 %19 to i1
  %vtable27 = load ptr, ptr %this1, align 8, !tbaa !26
  %vfn28 = getelementptr inbounds ptr, ptr %vtable27, i64 20
  %20 = load ptr, ptr %vfn28, align 8
  call void %20(ptr noundef nonnull align 8 dereferenceable(93) %this1, ptr noundef nonnull align 8 dereferenceable(8) %first, double noundef %18, i1 noundef zeroext %loadedv26)
  call void @llvm.lifetime.start.p0(i64 8, ptr %t29) #17
  %first30 = getelementptr inbounds nuw %"struct.std::pair", ptr %dd, i32 0, i32 0
  %call31 = call noundef double @_ZNK8QuantLib13TermStructure17timeFromReferenceERKNS_4DateE(ptr noundef nonnull align 8 dereferenceable(64) %this1, ptr noundef nonnull align 8 dereferenceable(8) %first30)
  store double %call31, ptr %t29, align 8, !tbaa !41
  %21 = load double, ptr %t29, align 8, !tbaa !41
  %22 = load double, ptr %strike.addr, align 8, !tbaa !41
  %vtable32 = load ptr, ptr %this1, align 8, !tbaa !26
  %vfn33 = getelementptr inbounds ptr, ptr %vtable32, i64 22
  %23 = load ptr, ptr %vfn33, align 8
  %call34 = call noundef double %23(ptr noundef nonnull align 8 dereferenceable(93) %this1, double noundef %21, double noundef %22)
  store double %call34, ptr %retval, align 8
  store i32 1, ptr %cleanup.dest.slot, align 4
  call void @llvm.lifetime.end.p0(i64 8, ptr %t29) #17
  call void @llvm.lifetime.end.p0(i64 16, ptr %dd) #17
  br label %cleanup

cleanup:                                          ; preds = %if.else, %if.then7
  call void @llvm.lifetime.end.p0(i64 8, ptr %useLag) #17
  %24 = load double, ptr %retval, align 8
  ret double %24
}