; Function Attrs: mustprogress uwtable
define noundef double @_ZNK8QuantLib20CPIVolatilitySurface10volatilityERKNS_4DateEdRKNS_6PeriodEb(ptr noundef nonnull align 8 dereferenceable(93) %this, ptr noundef nonnull align 8 dereferenceable(8) %maturityDate, double noundef %strike, ptr noundef nonnull align 4 dereferenceable(8) %obsLag, i1 noundef zeroext %extrapolate) local_unnamed_addr #6 align 2 {
entry:
  %ref.tmp = alloca %"class.QuantLib::Period", align 4
  %ref.tmp8 = alloca %"class.QuantLib::Date", align 8
  %ref.tmp12 = alloca %"class.QuantLib::Date", align 8
  %dd = alloca %"struct.std::pair", align 8
  %ref.tmp19 = alloca %"class.QuantLib::Date", align 8
  %0 = load i64, ptr %obsLag, align 4
  call void @llvm.lifetime.start.p0(i64 8, ptr nonnull %ref.tmp) #19
  store i32 -1, ptr %ref.tmp, align 4, !tbaa !43
  %units_.i = getelementptr inbounds nuw i8, ptr %ref.tmp, i64 4
  store i32 0, ptr %units_.i, align 4, !tbaa !44
  %call.i = call noundef zeroext i1 @_ZN8QuantLibltERKNS_6PeriodES2_(ptr noundef nonnull align 4 dereferenceable(8) %obsLag, ptr noundef nonnull align 4 dereferenceable(8) %ref.tmp)
  br i1 %call.i, label %_ZN8QuantLibeqERKNS_6PeriodES2_.exit.thread, label %_ZN8QuantLibeqERKNS_6PeriodES2_.exit

_ZN8QuantLibeqERKNS_6PeriodES2_.exit.thread:      ; preds = %entry
  call void @llvm.lifetime.end.p0(i64 8, ptr nonnull %ref.tmp) #19
  br label %if.end

_ZN8QuantLibeqERKNS_6PeriodES2_.exit:             ; preds = %entry
  %call1.i = call noundef zeroext i1 @_ZN8QuantLibltERKNS_6PeriodES2_(ptr noundef nonnull align 4 dereferenceable(8) %ref.tmp, ptr noundef nonnull align 4 dereferenceable(8) %obsLag)
  call void @llvm.lifetime.end.p0(i64 8, ptr nonnull %ref.tmp) #19
  br i1 %call1.i, label %if.end, label %if.then

if.then:                                          ; preds = %_ZN8QuantLibeqERKNS_6PeriodES2_.exit
  %vtable = load ptr, ptr %this, align 8, !tbaa !22
  %vfn = getelementptr inbounds i8, ptr %vtable, i64 112
  %1 = load ptr, ptr %vfn, align 8
  %call3 = call i64 %1(ptr noundef nonnull align 8 dereferenceable(93) %this)
  br label %if.end

if.end:                                           ; preds = %_ZN8QuantLibeqERKNS_6PeriodES2_.exit.thread, %if.then, %_ZN8QuantLibeqERKNS_6PeriodES2_.exit
  %useLag.sroa.7.0.in.in = phi i64 [ %call3, %if.then ], [ %0, %_ZN8QuantLibeqERKNS_6PeriodES2_.exit ], [ %0, %_ZN8QuantLibeqERKNS_6PeriodES2_.exit.thread ]
  %useLag.sroa.0.0 = trunc i64 %useLag.sroa.7.0.in.in to i32
  %useLag.sroa.7.0.in = lshr i64 %useLag.sroa.7.0.in.in, 32
  %useLag.sroa.7.0 = trunc nuw i64 %useLag.sroa.7.0.in to i32
  %vtable4 = load ptr, ptr %this, align 8, !tbaa !22
  %vfn5 = getelementptr inbounds i8, ptr %vtable4, i64 128
  %2 = load ptr, ptr %vfn5, align 8
  %call6 = call noundef zeroext i1 %2(ptr noundef nonnull align 8 dereferenceable(93) %this)
  br i1 %call6, label %if.then7, label %if.else

if.then7:                                         ; preds = %if.end
  call void @llvm.lifetime.start.p0(i64 8, ptr nonnull %ref.tmp8) #19
  %sub.i = sub nsw i32 0, %useLag.sroa.0.0
  %call3.i = call i64 @_ZN8QuantLib4Date7advanceERKS0_iNS_8TimeUnitE(ptr noundef nonnull align 8 dereferenceable(8) %maturityDate, i32 noundef %sub.i, i32 noundef %useLag.sroa.7.0)
  store i64 %call3.i, ptr %ref.tmp8, align 8
  %vtable10 = load ptr, ptr %this, align 8, !tbaa !22
  %vfn11 = getelementptr inbounds i8, ptr %vtable10, i64 160
  %3 = load ptr, ptr %vfn11, align 8
  call void %3(ptr noundef nonnull align 8 dereferenceable(93) %this, ptr noundef nonnull align 8 dereferenceable(8) %ref.tmp8, double noundef %strike, i1 noundef zeroext %extrapolate)
  call void @llvm.lifetime.end.p0(i64 8, ptr nonnull %ref.tmp8) #19
  call void @llvm.lifetime.start.p0(i64 8, ptr nonnull %ref.tmp12) #19
  %call3.i10 = call i64 @_ZN8QuantLib4Date7advanceERKS0_iNS_8TimeUnitE(ptr noundef nonnull align 8 dereferenceable(8) %maturityDate, i32 noundef %sub.i, i32 noundef %useLag.sroa.7.0)
  store i64 %call3.i10, ptr %ref.tmp12, align 8
  %call15 = call noundef double @_ZNK8QuantLib13TermStructure17timeFromReferenceERKNS_4DateE(ptr noundef nonnull align 8 dereferenceable(64) %this, ptr noundef nonnull align 8 dereferenceable(8) %ref.tmp12)
  call void @llvm.lifetime.end.p0(i64 8, ptr nonnull %ref.tmp12) #19
  %vtable16 = load ptr, ptr %this, align 8, !tbaa !22
  %vfn17 = getelementptr inbounds i8, ptr %vtable16, i64 176
  %4 = load ptr, ptr %vfn17, align 8
  %call18 = call noundef double %4(ptr noundef nonnull align 8 dereferenceable(93) %this, double noundef %call15, double noundef %strike)
  br label %cleanup

if.else:                                          ; preds = %if.end
  call void @llvm.lifetime.start.p0(i64 16, ptr nonnull %dd) #19
  call void @llvm.lifetime.start.p0(i64 8, ptr nonnull %ref.tmp19) #19
  %sub.i11 = sub nsw i32 0, %useLag.sroa.0.0
  %call3.i13 = call i64 @_ZN8QuantLib4Date7advanceERKS0_iNS_8TimeUnitE(ptr noundef nonnull align 8 dereferenceable(8) %maturityDate, i32 noundef %sub.i11, i32 noundef %useLag.sroa.7.0)
  store i64 %call3.i13, ptr %ref.tmp19, align 8
  %vtable22 = load ptr, ptr %this, align 8, !tbaa !22
  %vfn23 = getelementptr inbounds i8, ptr %vtable22, i64 120
  %5 = load ptr, ptr %vfn23, align 8
  %call24 = call noundef i32 %5(ptr noundef nonnull align 8 dereferenceable(93) %this)
  %call25 = call { i64, i64 } @_ZN8QuantLib15inflationPeriodERKNS_4DateENS_9FrequencyE(ptr noundef nonnull align 8 dereferenceable(8) %ref.tmp19, i32 noundef %call24)
  %6 = extractvalue { i64, i64 } %call25, 0
  store i64 %6, ptr %dd, align 8
  %7 = getelementptr inbounds nuw i8, ptr %dd, i64 8
  %8 = extractvalue { i64, i64 } %call25, 1
  store i64 %8, ptr %7, align 8
  call void @llvm.lifetime.end.p0(i64 8, ptr nonnull %ref.tmp19) #19
  %vtable27 = load ptr, ptr %this, align 8, !tbaa !22
  %vfn28 = getelementptr inbounds i8, ptr %vtable27, i64 160
  %9 = load ptr, ptr %vfn28, align 8
  call void %9(ptr noundef nonnull align 8 dereferenceable(93) %this, ptr noundef nonnull align 8 dereferenceable(8) %dd, double noundef %strike, i1 noundef zeroext %extrapolate)
  %call31 = call noundef double @_ZNK8QuantLib13TermStructure17timeFromReferenceERKNS_4DateE(ptr noundef nonnull align 8 dereferenceable(64) %this, ptr noundef nonnull align 8 dereferenceable(8) %dd)
  %vtable32 = load ptr, ptr %this, align 8, !tbaa !22
  %vfn33 = getelementptr inbounds i8, ptr %vtable32, i64 176
  %10 = load ptr, ptr %vfn33, align 8
  %call34 = call noundef double %10(ptr noundef nonnull align 8 dereferenceable(93) %this, double noundef %call31, double noundef %strike)
  call void @llvm.lifetime.end.p0(i64 16, ptr nonnull %dd) #19
  br label %cleanup

cleanup:                                          ; preds = %if.else, %if.then7
  %retval.0 = phi double [ %call18, %if.then7 ], [ %call34, %if.else ]
  ret double %retval.0
}